target datalayout = "e-m:e-p270:32:32-p271:32:32-p272:64:64-i64:64-i128:128-f80:128-n8:16:32:64-S128"
target triple = "x86_64-pc-linux-gnu"

%struct.ptr_infos = type { ptr, ptr, i32, i32 }
%struct.ptr_info = type { ptr, i32 }

; Function Attrs: nounwind uwtable
define internal ptr @ptr_torealptr(ptr noundef %0, i64 noundef %1, i32 noundef %2) #0 {
  %4 = alloca ptr, align 8
  %5 = alloca ptr, align 8
  %6 = alloca i64, align 8
  %7 = alloca i32, align 4
  %8 = alloca ptr, align 8
  %9 = alloca i32, align 4
  %10 = alloca i32, align 4
  store ptr %0, ptr %5, align 8
  store i64 %1, ptr %6, align 8
  store i32 %2, ptr %7, align 4
  %11 = load i64, ptr %6, align 8
  %12 = ashr i64 %11, 32
  %13 = trunc i64 %12 to i32
  store i32 %13, ptr %9, align 4
  %14 = load i64, ptr %6, align 8
  %15 = trunc i64 %14 to i32
  store i32 %15, ptr %10, align 4
  %16 = load i32, ptr %9, align 4
  %17 = icmp ne i32 %16, 0
  %18 = xor i1 %17, true
  %19 = xor i1 %18, true
  %20 = xor i1 %19, true
  %21 = zext i1 %20 to i32
  %22 = sext i32 %21 to i64
  %23 = icmp ne i64 %22, 0
  br i1 %23, label %24, label %25

24:                                               ; preds = %3
  store ptr null, ptr %4, align 8
  br label %106

25:                                               ; preds = %3
  %26 = load i32, ptr %9, align 4
  %27 = icmp slt i32 %26, 0
  br i1 %27, label %28, label %50

28:                                               ; preds = %25
  %29 = load i32, ptr %9, align 4
  %30 = sub nsw i32 0, %29
  %31 = sub nsw i32 %30, 1
  store i32 %31, ptr %9, align 4
  %32 = load i32, ptr %9, align 4
  %33 = load ptr, ptr %5, align 8
  %34 = getelementptr inbounds %struct.ptr_infos, ptr %33, i32 0, i32 2
  %35 = load i32, ptr %34, align 8
  %36 = icmp uge i32 %32, %35
  %37 = xor i1 %36, true
  %38 = xor i1 %37, true
  %39 = zext i1 %38 to i32
  %40 = sext i32 %39 to i64
  %41 = icmp ne i64 %40, 0
  br i1 %41, label %42, label %43

42:                                               ; preds = %28
  store ptr null, ptr %4, align 8
  br label %106

43:                                               ; preds = %28
  %44 = load ptr, ptr %5, align 8
  %45 = getelementptr inbounds %struct.ptr_infos, ptr %44, i32 0, i32 0
  %46 = load ptr, ptr %45, align 8
  %47 = load i32, ptr %9, align 4
  %48 = sext i32 %47 to i64
  %49 = getelementptr inbounds %struct.ptr_info, ptr %46, i64 %48
  store ptr %49, ptr %8, align 8
  br label %71

50:                                               ; preds = %25
  %51 = load i32, ptr %9, align 4
  %52 = add nsw i32 %51, -1
  store i32 %52, ptr %9, align 4
  %53 = load i32, ptr %9, align 4
  %54 = load ptr, ptr %5, align 8
  %55 = getelementptr inbounds %struct.ptr_infos, ptr %54, i32 0, i32 3
  %56 = load i32, ptr %55, align 4
  %57 = icmp uge i32 %53, %56
  %58 = xor i1 %57, true
  %59 = xor i1 %58, true
  %60 = zext i1 %59 to i32
  %61 = sext i32 %60 to i64
  %62 = icmp ne i64 %61, 0
  br i1 %62, label %63, label %64

63:                                               ; preds = %50
  store ptr null, ptr %4, align 8
  br label %106

64:                                               ; preds = %50
  %65 = load ptr, ptr %5, align 8
  %66 = getelementptr inbounds %struct.ptr_infos, ptr %65, i32 0, i32 1
  %67 = load ptr, ptr %66, align 8
  %68 = load i32, ptr %9, align 4
  %69 = sext i32 %68 to i64
  %70 = getelementptr inbounds %struct.ptr_info, ptr %67, i64 %69
  store ptr %70, ptr %8, align 8
  br label %71

71:                                               ; preds = %64, %43
  %72 = load i32, ptr %10, align 4
  %73 = load ptr, ptr %8, align 8
  %74 = getelementptr inbounds %struct.ptr_info, ptr %73, i32 0, i32 1
  %75 = load i32, ptr %74, align 8
  %76 = icmp ult i32 %72, %75
  br i1 %76, label %77, label %91

77:                                               ; preds = %71
  %78 = load i32, ptr %7, align 4
  %79 = load ptr, ptr %8, align 8
  %80 = getelementptr inbounds %struct.ptr_info, ptr %79, i32 0, i32 1
  %81 = load i32, ptr %80, align 8
  %82 = icmp ule i32 %78, %81
  br i1 %82, label %83, label %91

83:                                               ; preds = %77
  %84 = load i32, ptr %10, align 4
  %85 = load i32, ptr %7, align 4
  %86 = add i32 %84, %85
  %87 = load ptr, ptr %8, align 8
  %88 = getelementptr inbounds %struct.ptr_info, ptr %87, i32 0, i32 1
  %89 = load i32, ptr %88, align 8
  %90 = icmp ule i32 %86, %89
  br label %91

91:                                               ; preds = %83, %77, %71
  %92 = phi i1 [ false, %77 ], [ false, %71 ], [ %90, %83 ]
  %93 = xor i1 %92, true
  %94 = xor i1 %93, true
  %95 = zext i1 %94 to i32
  %96 = sext i32 %95 to i64
  %97 = icmp ne i64 %96, 0
  br i1 %97, label %98, label %105

98:                                               ; preds = %91
  %99 = load ptr, ptr %8, align 8
  %100 = getelementptr inbounds %struct.ptr_info, ptr %99, i32 0, i32 0
  %101 = load ptr, ptr %100, align 8
  %102 = load i32, ptr %10, align 4
  %103 = zext i32 %102 to i64
  %104 = getelementptr inbounds i8, ptr %101, i64 %103
  store ptr %104, ptr %4, align 8
  br label %106

105:                                              ; preds = %91
  store ptr null, ptr %4, align 8
  br label %106

106:                                              ; preds = %105, %98, %63, %42, %24
  %107 = load ptr, ptr %4, align 8
  ret ptr %107
}