; Function Attrs: mustprogress nofree norecurse nosync nounwind willreturn memory(read, inaccessiblemem: none) uwtable
define internal fastcc ptr @ptr_torealptr(ptr nocapture noundef readonly %0, i64 noundef %1, i32 noundef %2) unnamed_addr #5 {
  %4 = lshr i64 %1, 32
  %5 = trunc nuw i64 %4 to i32
  %6 = trunc i64 %1 to i32
  %.not = icmp eq i32 %5, 0
  br i1 %.not, label %.critedge, label %7

7:                                                ; preds = %3
  %8 = icmp slt i64 %1, 0
  br i1 %8, label %9, label %17

9:                                                ; preds = %7
  %10 = xor i32 %5, -1
  %11 = getelementptr inbounds i8, ptr %0, i64 16
  %12 = load i32, ptr %11, align 8
  %.not31 = icmp ugt i32 %12, %10
  br i1 %.not31, label %13, label %.critedge

13:                                               ; preds = %9
  %14 = load ptr, ptr %0, align 8
  %15 = zext nneg i32 %10 to i64
  %16 = getelementptr inbounds %struct.ptr_info, ptr %14, i64 %15
  br label %26

17:                                               ; preds = %7
  %18 = add nsw i32 %5, -1
  %19 = getelementptr inbounds i8, ptr %0, i64 20
  %20 = load i32, ptr %19, align 4
  %.not30 = icmp ult i32 %18, %20
  br i1 %.not30, label %21, label %.critedge

21:                                               ; preds = %17
  %22 = getelementptr inbounds i8, ptr %0, i64 8
  %23 = load ptr, ptr %22, align 8
  %24 = sext i32 %18 to i64
  %25 = getelementptr inbounds %struct.ptr_info, ptr %23, i64 %24
  br label %26

26:                                               ; preds = %21, %13
  %.023 = phi ptr [ %16, %13 ], [ %25, %21 ]
  %27 = getelementptr inbounds i8, ptr %.023, i64 8
  %28 = load i32, ptr %27, align 8
  %29 = icmp ugt i32 %28, %6
  %.not32 = icmp uge i32 %28, %2
  %or.cond.not36 = and i1 %29, %.not32
  %30 = add i32 %6, %2
  %31 = icmp ule i32 %30, %28
  %or.cond34 = and i1 %31, %or.cond.not36
  br i1 %or.cond34, label %32, label %.critedge

32:                                               ; preds = %26
  %33 = load ptr, ptr %.023, align 8
  %34 = and i64 %1, 4294967295
  %35 = getelementptr inbounds i8, ptr %33, i64 %34
  br label %.critedge

.critedge:                                        ; preds = %26, %17, %9, %3, %32
  %.0 = phi ptr [ %35, %32 ], [ null, %3 ], [ null, %9 ], [ null, %17 ], [ null, %26 ]
  ret ptr %.0
}